target datalayout = "e-m:e-p270:32:32-p271:32:32-p272:64:64-i64:64-i128:128-f80:128-n8:16:32:64-S128"
target triple = "x86_64-pc-linux-gnu"

%struct.keytype_desc_st = type { ptr, ptr, ptr, i32, i32, ptr, ptr, ptr, ptr, ptr, ptr, ptr, ptr }
%struct.der2key_ctx_st = type { ptr, ptr, i32, i8 }

@.str.1 = private unnamed_addr constant [11 x i8] c"xorhmacsig\00", align 1
@.str.2 = private unnamed_addr constant [31 x i8] c"../openssl/test/tls-provider.c\00", align 1
@PrivateKeyInfo_xorhmacsig_desc = internal global %struct.keytype_desc_st { ptr @.str.1, ptr @xor_xorhmacsig_keymgmt_functions, ptr @.str.54, i32 0, i32 1, ptr null, ptr null, ptr null, ptr @xorx_d2i_PKCS8, ptr null, ptr null, ptr @xorx_key_adjust, ptr @xor_freekey }, align 8

; Function Attrs: nounwind uwtable
define internal ptr @der2key_newctx(ptr noundef %0, ptr noundef %1, ptr noundef %2) #0 {
  %4 = alloca ptr, align 8
  %5 = alloca ptr, align 8
  %6 = alloca ptr, align 8
  %7 = alloca ptr, align 8
  store ptr %0, ptr %4, align 8, !tbaa !13
  store ptr %1, ptr %5, align 8, !tbaa !122
  store ptr %2, ptr %6, align 8, !tbaa !30
  call void @llvm.lifetime.start.p0(i64 8, ptr %7) #8
  %8 = call noalias ptr @CRYPTO_zalloc(i64 noundef 24, ptr noundef @.str.2, i32 noundef 2273)
  store ptr %8, ptr %7, align 8, !tbaa !103
  %9 = load ptr, ptr %7, align 8, !tbaa !103
  %10 = icmp ne ptr %9, null
  br i1 %10, label %11, label %30

11:                                               ; preds = %3
  %12 = load ptr, ptr %4, align 8, !tbaa !13
  %13 = load ptr, ptr %7, align 8, !tbaa !103
  %14 = getelementptr inbounds nuw %struct.der2key_ctx_st, ptr %13, i32 0, i32 0
  store ptr %12, ptr %14, align 8, !tbaa !111
  %15 = load ptr, ptr %5, align 8, !tbaa !122
  %16 = load ptr, ptr %7, align 8, !tbaa !103
  %17 = getelementptr inbounds nuw %struct.der2key_ctx_st, ptr %16, i32 0, i32 1
  store ptr %15, ptr %17, align 8, !tbaa !108
  %18 = load ptr, ptr %5, align 8, !tbaa !122
  %19 = getelementptr inbounds nuw %struct.keytype_desc_st, ptr %18, i32 0, i32 3
  %20 = load i32, ptr %19, align 8, !tbaa !123
  %21 = icmp eq i32 %20, 0
  br i1 %21, label %22, label %29

22:                                               ; preds = %11
  %23 = load ptr, ptr %6, align 8, !tbaa !30
  %24 = call i32 @OBJ_sn2nid(ptr noundef %23)
  %25 = load ptr, ptr %7, align 8, !tbaa !103
  %26 = getelementptr inbounds nuw %struct.der2key_ctx_st, ptr %25, i32 0, i32 1
  %27 = load ptr, ptr %26, align 8, !tbaa !108
  %28 = getelementptr inbounds nuw %struct.keytype_desc_st, ptr %27, i32 0, i32 3
  store i32 %24, ptr %28, align 8, !tbaa !123
  br label %29

29:                                               ; preds = %22, %11
  br label %30

30:                                               ; preds = %29, %3
  %31 = load ptr, ptr %7, align 8, !tbaa !103
  call void @llvm.lifetime.end.p0(i64 8, ptr %7) #8
  ret ptr %31
}

; Function Attrs: nounwind uwtable
define internal ptr @PrivateKeyInfo_der2xorhmacsig_newctx(ptr noundef %0) #0 {
  %2 = alloca ptr, align 8
  store ptr %0, ptr %2, align 8, !tbaa !13
  %3 = load ptr, ptr %2, align 8, !tbaa !13
  %4 = call ptr @der2key_newctx(ptr noundef %3, ptr noundef @PrivateKeyInfo_xorhmacsig_desc, ptr noundef @.str.1)
  ret ptr %4
}