; Function Attrs: nounwind uwtable
define internal noalias ptr @PrivateKeyInfo_der2xorhmacsig_newctx(ptr noundef %0) #0 {
  %2 = tail call noalias ptr @CRYPTO_zalloc(i64 noundef 24, ptr noundef nonnull @.str.2, i32 noundef 2273) #16
  %.not.i = icmp eq ptr %2, null
  br i1 %.not.i, label %der2key_newctx.exit, label %3

3:                                                ; preds = %1
  store ptr %0, ptr %2, align 8, !tbaa !73
  %4 = getelementptr inbounds nuw i8, ptr %2, i64 8
  store ptr @PrivateKeyInfo_xorhmacsig_desc, ptr %4, align 8, !tbaa !76
  %5 = load i32, ptr getelementptr inbounds nuw (i8, ptr @PrivateKeyInfo_xorhmacsig_desc, i64 24), align 8, !tbaa !77
  %6 = icmp eq i32 %5, 0
  br i1 %6, label %7, label %der2key_newctx.exit

7:                                                ; preds = %3
  %8 = tail call i32 @OBJ_sn2nid(ptr noundef nonnull @.str.1) #16
  store i32 %8, ptr getelementptr inbounds nuw (i8, ptr @PrivateKeyInfo_xorhmacsig_desc, i64 24), align 8, !tbaa !77
  br label %der2key_newctx.exit

der2key_newctx.exit:                              ; preds = %1, %3, %7
  ret ptr %2
}